target datalayout = "e-m:e-p270:32:32-p271:32:32-p272:64:64-i64:64-i128:128-f80:128-n8:16:32:64-S128"
target triple = "x86_64-pc-linux-gnu"

%struct.AVCodecContext = type { ptr, i32, i32, ptr, i32, i32, ptr, ptr, ptr, i64, i32, i32, ptr, i32, %struct.AVRational, %struct.AVRational, %struct.AVRational, i32, i32, i32, i32, i32, %struct.AVRational, i32, i32, i32, i32, i32, i32, i32, i32, i32, i32, i32, ptr, ptr, i32, float, float, float, float, float, float, float, float, float, i32, i32, i32, i32, i32, i32, i32, i32, i32, i32, i32, i32, ptr, ptr, ptr, i32, i32, i32, i32, i32, i32, i32, i32, i32, i32, %struct.AVChannelLayout, i32, i32, i32, i32, i32, i32, i32, i32, ptr, i32, i32, i32, float, float, i32, i32, i32, i32, i32, ptr, i64, i64, float, float, i32, i32, ptr, ptr, i32, i32, i32, i32, i32, ptr, ptr, ptr, ptr, i32, i32, [8 x i64], i32, i32, i32, i32, i32, i32, i32, ptr, ptr, i32, i32, i32, i32, i32, i32, i32, i32, i32, i32, ptr, ptr, i32, i32, ptr, ptr, ptr, ptr, i32, i32, i64, i32, i32, i64, ptr, i64, ptr, i32, ptr, i32 }
%struct.AVRational = type { i32, i32 }
%struct.AVChannelLayout = type { i32, i32, %union.anon.0, ptr }
%union.anon.0 = type { i64 }
%struct.Vp3DecodeContext = type { ptr, i32, i32, i32, i32, i32, i32, i32, i32, %struct.ProgressFrame, %struct.ProgressFrame, %struct.ProgressFrame, i32, [64 x i8], [64 x i8], %struct.HpelDSPContext, %struct.VideoDSPContext, %struct.VP3DSPContext, [64 x i16], i32, i32, i32, [3 x i32], i32, [3 x i32], i32, i32, i32, i32, i32, i32, i32, i32, i32, ptr, i32, i32, i32, i32, i32, i32, i32, i32, [2 x i32], [2 x i32], ptr, [3 x i32], [3 x i32], i8, i8, i32, [2 x ptr], [2 x [64 x i16]], [64 x i32], [384 x [64 x i8]], [2 x [3 x i8]], [2 x [3 x [64 x i8]]], [2 x [3 x [64 x i16]]], [3 x [64 x ptr]], ptr, [3 x [64 x i32]], i32, [3 x ptr], ptr, ptr, [3 x i32], ptr, [8 x i8], [3 x [2 x [3 x [64 x i16]]]], ptr, ptr, ptr, [80 x %struct.HuffTable], [64 x i8], [258 x i32], ptr, [8 x i8] }
%struct.ProgressFrame = type { ptr, ptr }
%struct.HpelDSPContext = type { [4 x [4 x ptr]], [4 x [4 x ptr]], [4 x [4 x ptr]], [4 x ptr] }
%struct.VideoDSPContext = type { ptr, ptr }
%struct.VP3DSPContext = type { ptr, ptr, ptr, ptr, ptr, ptr, ptr, ptr }
%struct.HuffTable = type { [32 x %struct.HuffEntry], i8 }
%struct.HuffEntry = type { i8, i8 }
%struct.AVFrame = type { [8 x ptr], [8 x i32], ptr, i32, i32, i32, i32, i32, %struct.AVRational, i64, i64, %struct.AVRational, i32, ptr, i32, i32, [8 x ptr], ptr, i32, ptr, i32, i32, i32, i32, i32, i32, i32, i64, ptr, i32, ptr, ptr, i64, i64, i64, i64, ptr, %struct.AVChannelLayout, i64 }

; Function Attrs: nounwind uwtable
define internal void @vp3_draw_horiz_band(ptr noundef %0, i32 noundef %1) #0 {
  %3 = alloca ptr, align 8
  %4 = alloca i32, align 4
  %5 = alloca i32, align 4
  %6 = alloca i32, align 4
  %7 = alloca [8 x i32], align 16
  %8 = alloca i32, align 4
  %9 = alloca i32, align 4
  %10 = alloca i32, align 4
  store ptr %0, ptr %3, align 8, !tbaa !29
  store i32 %1, ptr %4, align 4, !tbaa !31
  call void @llvm.lifetime.start.p0(i64 4, ptr %5) #9
  call void @llvm.lifetime.start.p0(i64 4, ptr %6) #9
  call void @llvm.lifetime.start.p0(i64 32, ptr %7) #9
  %11 = load ptr, ptr %3, align 8, !tbaa !29
  %12 = getelementptr inbounds nuw %struct.Vp3DecodeContext, ptr %11, i32 0, i32 0
  %13 = load ptr, ptr %12, align 16, !tbaa !62
  %14 = getelementptr inbounds nuw %struct.AVCodecContext, ptr %13, i32 0, i32 118
  %15 = load i32, ptr %14, align 8, !tbaa !63
  %16 = and i32 %15, 1
  %17 = icmp ne i32 %16, 0
  br i1 %17, label %18, label %46

18:                                               ; preds = %2
  call void @llvm.lifetime.start.p0(i64 4, ptr %8) #9
  %19 = load ptr, ptr %3, align 8, !tbaa !29
  %20 = getelementptr inbounds nuw %struct.Vp3DecodeContext, ptr %19, i32 0, i32 19
  %21 = load i32, ptr %20, align 16, !tbaa !88
  %22 = icmp ne i32 %21, 0
  br i1 %22, label %23, label %29

23:                                               ; preds = %18
  %24 = load ptr, ptr %3, align 8, !tbaa !29
  %25 = getelementptr inbounds nuw %struct.Vp3DecodeContext, ptr %24, i32 0, i32 6
  %26 = load i32, ptr %25, align 4, !tbaa !44
  %27 = load i32, ptr %4, align 4, !tbaa !31
  %28 = sub nsw i32 %26, %27
  br label %31

29:                                               ; preds = %18
  %30 = load i32, ptr %4, align 4, !tbaa !31
  br label %31

31:                                               ; preds = %29, %23
  %32 = phi i32 [ %28, %23 ], [ %30, %29 ]
  store i32 %32, ptr %8, align 4, !tbaa !31
  %33 = load ptr, ptr %3, align 8, !tbaa !29
  %34 = getelementptr inbounds nuw %struct.Vp3DecodeContext, ptr %33, i32 0, i32 11
  %35 = load i32, ptr %8, align 4, !tbaa !31
  %36 = load ptr, ptr %3, align 8, !tbaa !29
  %37 = getelementptr inbounds nuw %struct.Vp3DecodeContext, ptr %36, i32 0, i32 6
  %38 = load i32, ptr %37, align 4, !tbaa !44
  %39 = icmp eq i32 %35, %38
  br i1 %39, label %40, label %41

40:                                               ; preds = %31
  br label %44

41:                                               ; preds = %31
  %42 = load i32, ptr %8, align 4, !tbaa !31
  %43 = sub nsw i32 %42, 1
  br label %44

44:                                               ; preds = %41, %40
  %45 = phi i32 [ 2147483647, %40 ], [ %43, %41 ]
  call void @ff_progress_frame_report(ptr noundef %34, i32 noundef %45)
  call void @llvm.lifetime.end.p0(i64 4, ptr %8) #9
  br label %46

46:                                               ; preds = %44, %2
  %47 = load ptr, ptr %3, align 8, !tbaa !29
  %48 = getelementptr inbounds nuw %struct.Vp3DecodeContext, ptr %47, i32 0, i32 0
  %49 = load ptr, ptr %48, align 16, !tbaa !62
  %50 = getelementptr inbounds nuw %struct.AVCodecContext, ptr %49, i32 0, i32 34
  %51 = load ptr, ptr %50, align 8, !tbaa !267
  %52 = icmp ne ptr %51, null
  br i1 %52, label %54, label %53

53:                                               ; preds = %46
  store i32 1, ptr %9, align 4
  br label %144

54:                                               ; preds = %46
  %55 = load i32, ptr %4, align 4, !tbaa !31
  %56 = load ptr, ptr %3, align 8, !tbaa !29
  %57 = getelementptr inbounds nuw %struct.Vp3DecodeContext, ptr %56, i32 0, i32 20
  %58 = load i32, ptr %57, align 4, !tbaa !90
  %59 = sub nsw i32 %55, %58
  store i32 %59, ptr %5, align 4, !tbaa !31
  %60 = load i32, ptr %4, align 4, !tbaa !31
  %61 = load ptr, ptr %3, align 8, !tbaa !29
  %62 = getelementptr inbounds nuw %struct.Vp3DecodeContext, ptr %61, i32 0, i32 20
  store i32 %60, ptr %62, align 4, !tbaa !90
  %63 = load i32, ptr %5, align 4, !tbaa !31
  %64 = load i32, ptr %4, align 4, !tbaa !31
  %65 = sub nsw i32 %64, %63
  store i32 %65, ptr %4, align 4, !tbaa !31
  %66 = load ptr, ptr %3, align 8, !tbaa !29
  %67 = getelementptr inbounds nuw %struct.Vp3DecodeContext, ptr %66, i32 0, i32 19
  %68 = load i32, ptr %67, align 16, !tbaa !88
  %69 = icmp ne i32 %68, 0
  br i1 %69, label %78, label %70

70:                                               ; preds = %54
  %71 = load ptr, ptr %3, align 8, !tbaa !29
  %72 = getelementptr inbounds nuw %struct.Vp3DecodeContext, ptr %71, i32 0, i32 6
  %73 = load i32, ptr %72, align 4, !tbaa !44
  %74 = load i32, ptr %4, align 4, !tbaa !31
  %75 = sub nsw i32 %73, %74
  %76 = load i32, ptr %5, align 4, !tbaa !31
  %77 = sub nsw i32 %75, %76
  store i32 %77, ptr %4, align 4, !tbaa !31
  br label %78

78:                                               ; preds = %70, %54
  %79 = load i32, ptr %4, align 4, !tbaa !31
  %80 = load ptr, ptr %3, align 8, !tbaa !29
  %81 = getelementptr inbounds nuw %struct.Vp3DecodeContext, ptr %80, i32 0, i32 8
  %82 = load i32, ptr %81, align 4, !tbaa !87
  %83 = ashr i32 %79, %82
  store i32 %83, ptr %6, align 4, !tbaa !31
  %84 = load ptr, ptr %3, align 8, !tbaa !29
  %85 = getelementptr inbounds nuw %struct.Vp3DecodeContext, ptr %84, i32 0, i32 11
  %86 = getelementptr inbounds nuw %struct.ProgressFrame, ptr %85, i32 0, i32 0
  %87 = load ptr, ptr %86, align 8, !tbaa !42
  %88 = getelementptr inbounds nuw %struct.AVFrame, ptr %87, i32 0, i32 1
  %89 = getelementptr inbounds [8 x i32], ptr %88, i64 0, i64 0
  %90 = load i32, ptr %89, align 8, !tbaa !31
  %91 = load i32, ptr %4, align 4, !tbaa !31
  %92 = mul nsw i32 %90, %91
  %93 = getelementptr inbounds [8 x i32], ptr %7, i64 0, i64 0
  store i32 %92, ptr %93, align 16, !tbaa !31
  %94 = load ptr, ptr %3, align 8, !tbaa !29
  %95 = getelementptr inbounds nuw %struct.Vp3DecodeContext, ptr %94, i32 0, i32 11
  %96 = getelementptr inbounds nuw %struct.ProgressFrame, ptr %95, i32 0, i32 0
  %97 = load ptr, ptr %96, align 8, !tbaa !42
  %98 = getelementptr inbounds nuw %struct.AVFrame, ptr %97, i32 0, i32 1
  %99 = getelementptr inbounds [8 x i32], ptr %98, i64 0, i64 1
  %100 = load i32, ptr %99, align 4, !tbaa !31
  %101 = load i32, ptr %6, align 4, !tbaa !31
  %102 = mul nsw i32 %100, %101
  %103 = getelementptr inbounds [8 x i32], ptr %7, i64 0, i64 1
  store i32 %102, ptr %103, align 4, !tbaa !31
  %104 = load ptr, ptr %3, align 8, !tbaa !29
  %105 = getelementptr inbounds nuw %struct.Vp3DecodeContext, ptr %104, i32 0, i32 11
  %106 = getelementptr inbounds nuw %struct.ProgressFrame, ptr %105, i32 0, i32 0
  %107 = load ptr, ptr %106, align 8, !tbaa !42
  %108 = getelementptr inbounds nuw %struct.AVFrame, ptr %107, i32 0, i32 1
  %109 = getelementptr inbounds [8 x i32], ptr %108, i64 0, i64 2
  %110 = load i32, ptr %109, align 8, !tbaa !31
  %111 = load i32, ptr %6, align 4, !tbaa !31
  %112 = mul nsw i32 %110, %111
  %113 = getelementptr inbounds [8 x i32], ptr %7, i64 0, i64 2
  store i32 %112, ptr %113, align 8, !tbaa !31
  call void @llvm.lifetime.start.p0(i64 4, ptr %10) #9
  store i32 3, ptr %10, align 4, !tbaa !31
  br label %114

114:                                              ; preds = %122, %78
  %115 = load i32, ptr %10, align 4, !tbaa !31
  %116 = icmp slt i32 %115, 8
  br i1 %116, label %118, label %117

117:                                              ; preds = %114
  store i32 2, ptr %9, align 4
  call void @llvm.lifetime.end.p0(i64 4, ptr %10) #9
  br label %125

118:                                              ; preds = %114
  %119 = load i32, ptr %10, align 4, !tbaa !31
  %120 = sext i32 %119 to i64
  %121 = getelementptr inbounds [8 x i32], ptr %7, i64 0, i64 %120
  store i32 0, ptr %121, align 4, !tbaa !31
  br label %122

122:                                              ; preds = %118
  %123 = load i32, ptr %10, align 4, !tbaa !31
  %124 = add nsw i32 %123, 1
  store i32 %124, ptr %10, align 4, !tbaa !31
  br label %114, !llvm.loop !268

125:                                              ; preds = %117
  br label %126

126:                                              ; preds = %125
  br label %127

127:                                              ; preds = %126
  br label %128

128:                                              ; preds = %127
  %129 = load ptr, ptr %3, align 8, !tbaa !29
  %130 = getelementptr inbounds nuw %struct.Vp3DecodeContext, ptr %129, i32 0, i32 0
  %131 = load ptr, ptr %130, align 16, !tbaa !62
  %132 = getelementptr inbounds nuw %struct.AVCodecContext, ptr %131, i32 0, i32 34
  %133 = load ptr, ptr %132, align 8, !tbaa !267
  %134 = load ptr, ptr %3, align 8, !tbaa !29
  %135 = getelementptr inbounds nuw %struct.Vp3DecodeContext, ptr %134, i32 0, i32 0
  %136 = load ptr, ptr %135, align 16, !tbaa !62
  %137 = load ptr, ptr %3, align 8, !tbaa !29
  %138 = getelementptr inbounds nuw %struct.Vp3DecodeContext, ptr %137, i32 0, i32 11
  %139 = getelementptr inbounds nuw %struct.ProgressFrame, ptr %138, i32 0, i32 0
  %140 = load ptr, ptr %139, align 8, !tbaa !42
  %141 = getelementptr inbounds [8 x i32], ptr %7, i64 0, i64 0
  %142 = load i32, ptr %4, align 4, !tbaa !31
  %143 = load i32, ptr %5, align 4, !tbaa !31
  call void %133(ptr noundef %136, ptr noundef %140, ptr noundef %141, i32 noundef %142, i32 noundef 3, i32 noundef %143)
  store i32 0, ptr %9, align 4
  br label %144

144:                                              ; preds = %128, %53
  call void @llvm.lifetime.end.p0(i64 32, ptr %7) #9
  call void @llvm.lifetime.end.p0(i64 4, ptr %6) #9
  call void @llvm.lifetime.end.p0(i64 4, ptr %5) #9
  %145 = load i32, ptr %9, align 4
  switch i32 %145, label %147 [
    i32 0, label %146
    i32 1, label %146
  ]

146:                                              ; preds = %144, %144
  ret void

147:                                              ; preds = %144
  unreachable
}