; Function Attrs: nounwind uwtable
define internal fastcc void @vp3_draw_horiz_band(ptr noundef %0, i32 noundef %1) unnamed_addr #0 {
  %3 = alloca [8 x i32], align 16
  call void @llvm.lifetime.start.p0(i64 32, ptr nonnull %3) #9
  %4 = load ptr, ptr %0, align 16, !tbaa !65
  %5 = getelementptr inbounds nuw i8, ptr %4, i64 664
  %6 = load i32, ptr %5, align 8, !tbaa !66
  %7 = and i32 %6, 1
  %.not = icmp eq i32 %7, 0
  br i1 %.not, label %16, label %._crit_edge

._crit_edge:                                      ; preds = %2
  %8 = getelementptr inbounds nuw i8, ptr %0, i64 848
  %9 = load i32, ptr %8, align 16, !tbaa !146
  %.not36 = icmp eq i32 %9, 0
  %.phi.trans.insert = getelementptr inbounds nuw i8, ptr %0, i64 28
  %.pre = load i32, ptr %.phi.trans.insert, align 4, !tbaa !40
  %10 = sub nsw i32 %.pre, %1
  %11 = select i1 %.not36, i32 %1, i32 %10
  %12 = getelementptr inbounds nuw i8, ptr %0, i64 72
  %13 = icmp eq i32 %11, %.pre
  %14 = add nsw i32 %11, -1
  %15 = select i1 %13, i32 2147483647, i32 %14
  tail call void @ff_progress_frame_report(ptr noundef nonnull %12, i32 noundef %15) #9
  %.pre41 = load ptr, ptr %0, align 16, !tbaa !65
  br label %16

16:                                               ; preds = %._crit_edge, %2
  %17 = phi ptr [ %.pre41, %._crit_edge ], [ %4, %2 ]
  %18 = getelementptr inbounds nuw i8, ptr %17, i64 184
  %19 = load ptr, ptr %18, align 8, !tbaa !149
  %.not37 = icmp eq ptr %19, null
  br i1 %.not37, label %47, label %20

20:                                               ; preds = %16
  %21 = getelementptr inbounds nuw i8, ptr %0, i64 852
  %22 = load i32, ptr %21, align 4, !tbaa !144
  %23 = sub nsw i32 %1, %22
  store i32 %1, ptr %21, align 4, !tbaa !144
  %24 = getelementptr inbounds nuw i8, ptr %0, i64 848
  %25 = load i32, ptr %24, align 16, !tbaa !146
  %.not38 = icmp eq i32 %25, 0
  br i1 %.not38, label %26, label %30

26:                                               ; preds = %20
  %27 = getelementptr inbounds nuw i8, ptr %0, i64 28
  %28 = load i32, ptr %27, align 4, !tbaa !40
  %29 = sub i32 %28, %1
  br label %30

30:                                               ; preds = %26, %20
  %.035 = phi i32 [ %22, %20 ], [ %29, %26 ]
  %31 = getelementptr inbounds nuw i8, ptr %0, i64 36
  %32 = load i32, ptr %31, align 4, !tbaa !130
  %33 = ashr i32 %.035, %32
  %34 = getelementptr inbounds nuw i8, ptr %0, i64 72
  %35 = load ptr, ptr %34, align 8, !tbaa !38
  %36 = getelementptr inbounds nuw i8, ptr %35, i64 64
  %37 = load i32, ptr %36, align 8, !tbaa !42
  %38 = mul nsw i32 %37, %.035
  store i32 %38, ptr %3, align 16, !tbaa !42
  %39 = getelementptr inbounds nuw i8, ptr %35, i64 68
  %40 = load i32, ptr %39, align 4, !tbaa !42
  %41 = mul nsw i32 %40, %33
  %42 = getelementptr inbounds nuw i8, ptr %3, i64 4
  store i32 %41, ptr %42, align 4, !tbaa !42
  %43 = getelementptr inbounds nuw i8, ptr %35, i64 72
  %44 = load i32, ptr %43, align 8, !tbaa !42
  %45 = mul nsw i32 %44, %33
  %46 = getelementptr inbounds nuw i8, ptr %3, i64 8
  store i32 %45, ptr %46, align 8, !tbaa !42
  %scevgep = getelementptr inbounds nuw i8, ptr %3, i64 12
  call void @llvm.memset.p0.i64(ptr noundef nonnull align 4 dereferenceable(20) %scevgep, i8 0, i64 20, i1 false), !tbaa !42
  call void %19(ptr noundef nonnull %17, ptr noundef %35, ptr noundef nonnull %3, i32 noundef %.035, i32 noundef 3, i32 noundef %23) #9
  br label %47

47:                                               ; preds = %16, %30
  call void @llvm.lifetime.end.p0(i64 32, ptr nonnull %3) #9
  ret void
}